target datalayout = "e-m:e-p270:32:32-p271:32:32-p272:64:64-i64:64-i128:128-f80:128-n8:16:32:64-S128"
target triple = "x86_64-pc-linux-gnu"

%struct.GDBState = type { i8, ptr, ptr, ptr, i32, [4096 x i8], i32, i32, i32, ptr, i32, i8, ptr, i32, ptr, ptr, i32, i32, i8 }
%union.CPUTailQ = type { %struct.QTailQLink }
%struct.QTailQLink = type { ptr, ptr }
%struct.CPUState = type { %struct.DeviceState, ptr, i32, ptr, i32, i8, i8, ptr, i8, i8, i8, i8, i8, i8, i8, i8, i32, i32, i32, i32, i64, i64, i64, [1 x %struct.__jmp_buf_tag], %struct.QemuMutex, %struct.anon, ptr, i32, i32, ptr, ptr, ptr, ptr, i32, i32, %union.anon, %union.anon.0, %union.anon.1, ptr, ptr, i64, i32, ptr, ptr, ptr, i32, i64, i32, i8, %struct.QemuLockCnt, ptr, i32, i32, i32, i32, i32, ptr, i8, i64, i8, i8, ptr, [0 x i8], %struct.CPUNegativeOffsetState }
%struct.DeviceState = type { %struct.Object, ptr, ptr, i8, i8, i64, i32, i8, ptr, %struct.NamedGPIOListHead, %struct.NamedClockListHead, %struct.BusStateHead, i32, i32, i32, %struct.ResettableState, ptr, %struct.MemReentrancyGuard }
%struct.Object = type { ptr, ptr, ptr, i32, ptr }
%struct.NamedGPIOListHead = type { ptr }
%struct.NamedClockListHead = type { ptr }
%struct.BusStateHead = type { ptr }
%struct.ResettableState = type { i32, i8, i8 }
%struct.MemReentrancyGuard = type { i8 }
%struct.__jmp_buf_tag = type { [8 x i64], i32, %struct.__sigset_t }
%struct.__sigset_t = type { [16 x i64] }
%struct.QemuMutex = type { %union.pthread_mutex_t, i8 }
%union.pthread_mutex_t = type { %struct.__pthread_mutex_s }
%struct.__pthread_mutex_s = type { i32, i32, i32, i32, i32, i16, i16, %struct.__pthread_internal_list }
%struct.__pthread_internal_list = type { ptr, ptr }
%struct.anon = type { ptr, ptr }
%union.anon = type { %struct.QTailQLink }
%union.anon.0 = type { %struct.QTailQLink }
%union.anon.1 = type { %struct.QTailQLink }
%struct.QemuLockCnt = type { i32 }
%struct.CPUNegativeOffsetState = type { %struct.CPUTLB, ptr, i64, i64, %union.IcountDecr, i8 }
%struct.CPUTLB = type { %struct.CPUTLBCommon, [16 x %struct.CPUTLBDesc], [16 x %struct.CPUTLBDescFast] }
%struct.CPUTLBCommon = type { %struct.QemuSpin, i16, i64, i64, i64 }
%struct.QemuSpin = type { i32 }
%struct.CPUTLBDesc = type { i64, i64, i64, i64, i64, i64, [8 x %union.CPUTLBEntry], [8 x %struct.CPUTLBEntryFull], ptr }
%union.CPUTLBEntry = type { %struct.anon.2 }
%struct.anon.2 = type { i64, i64, i64, i64 }
%struct.CPUTLBEntryFull = type { i64, i64, %struct.MemTxAttrs, i8, i8, i8, [3 x i8], %union.anon.3 }
%struct.MemTxAttrs = type { i32, i8, i8, i16 }
%union.anon.3 = type { %struct.anon.4 }
%struct.anon.4 = type { i8, i8, i8 }
%struct.CPUTLBDescFast = type { i64, ptr }
%union.IcountDecr = type { i32 }
%struct.timeval = type { i64, i64 }

@gdbserver_state = external global %struct.GDBState, align 8
@cpus_queue = external global %union.CPUTailQ, align 8
@trace_events_enabled_count = external global i32, align 4
@message_with_timestamp = external global i8, align 1
@qemu_loglevel = external global i32, align 4
@_TRACE_GDBSTUB_OP_STEPPING_DSTATE = external global i16, align 2
@.str.56 = private unnamed_addr constant [50 x i8] c"%d@%zu.%06zu:gdbstub_op_stepping Stepping CPU %d\0A\00", align 1
@.str.57 = private unnamed_addr constant [37 x i8] c"gdbstub_op_stepping Stepping CPU %d\0A\00", align 1
@_TRACE_GDBSTUB_OP_CONTINUE_CPU_DSTATE = external global i16, align 2
@.str.58 = private unnamed_addr constant [56 x i8] c"%d@%zu.%06zu:gdbstub_op_continue_cpu Continuing CPU %d\0A\00", align 1
@.str.59 = private unnamed_addr constant [43 x i8] c"gdbstub_op_continue_cpu Continuing CPU %d\0A\00", align 1

; Function Attrs: inlinehint nounwind sspstrong uwtable
define internal zeroext i1 @qemu_loglevel_mask(i32 noundef %0) #3 {
  %2 = alloca i32, align 4
  store i32 %0, ptr %2, align 4
  %3 = load i32, ptr @qemu_loglevel, align 4
  %4 = load i32, ptr %2, align 4
  %5 = and i32 %3, %4
  %6 = icmp ne i32 %5, 0
  ret i1 %6
}

; Function Attrs: inlinehint nounwind sspstrong uwtable
define internal void @_nocheck__trace_gdbstub_op_continue_cpu(i32 noundef %0) #3 {
  %2 = alloca i32, align 4
  %3 = alloca %struct.timeval, align 8
  store i32 %0, ptr %2, align 4
  %4 = load i32, ptr @trace_events_enabled_count, align 4
  %5 = icmp ne i32 %4, 0
  %6 = xor i1 %5, true
  %7 = xor i1 %6, true
  %8 = zext i1 %7 to i32
  %9 = sext i32 %8 to i64
  %10 = call i64 @llvm.expect.i64(i64 %9, i64 0)
  %11 = icmp ne i64 %10, 0
  br i1 %11, label %12, label %32

12:                                               ; preds = %1
  %13 = load i16, ptr @_TRACE_GDBSTUB_OP_CONTINUE_CPU_DSTATE, align 2
  %14 = zext i16 %13 to i32
  %15 = icmp ne i32 %14, 0
  br i1 %15, label %16, label %32

16:                                               ; preds = %12
  %17 = call zeroext i1 @qemu_loglevel_mask(i32 noundef 32768)
  br i1 %17, label %18, label %32

18:                                               ; preds = %16
  %19 = load i8, ptr @message_with_timestamp, align 1, !range !7, !noundef !8
  %20 = trunc i8 %19 to i1
  br i1 %20, label %21, label %29

21:                                               ; preds = %18
  call void @llvm.lifetime.start.p0(i64 16, ptr %3) #14
  call void @llvm.memset.p0.i64(ptr align 8 %3, i8 0, i64 16, i1 false), !annotation !4
  %22 = call i32 @gettimeofday(ptr noundef %3, ptr noundef null) #14
  %23 = call i32 @qemu_get_thread_id()
  %24 = getelementptr inbounds nuw %struct.timeval, ptr %3, i32 0, i32 0
  %25 = load i64, ptr %24, align 8
  %26 = getelementptr inbounds nuw %struct.timeval, ptr %3, i32 0, i32 1
  %27 = load i64, ptr %26, align 8
  %28 = load i32, ptr %2, align 4
  call void (ptr, ...) @qemu_log(ptr noundef @.str.58, i32 noundef %23, i64 noundef %25, i64 noundef %27, i32 noundef %28)
  call void @llvm.lifetime.end.p0(i64 16, ptr %3) #14
  br label %31

29:                                               ; preds = %18
  %30 = load i32, ptr %2, align 4
  call void (ptr, ...) @qemu_log(ptr noundef @.str.59, i32 noundef %30)
  br label %31

31:                                               ; preds = %29, %21
  br label %32

32:                                               ; preds = %31, %16, %12, %1
  ret void
}

; Function Attrs: inlinehint nounwind sspstrong uwtable
define internal void @_nocheck__trace_gdbstub_op_stepping(i32 noundef %0) #3 {
  %2 = alloca i32, align 4
  %3 = alloca %struct.timeval, align 8
  store i32 %0, ptr %2, align 4
  %4 = load i32, ptr @trace_events_enabled_count, align 4
  %5 = icmp ne i32 %4, 0
  %6 = xor i1 %5, true
  %7 = xor i1 %6, true
  %8 = zext i1 %7 to i32
  %9 = sext i32 %8 to i64
  %10 = call i64 @llvm.expect.i64(i64 %9, i64 0)
  %11 = icmp ne i64 %10, 0
  br i1 %11, label %12, label %32

12:                                               ; preds = %1
  %13 = load i16, ptr @_TRACE_GDBSTUB_OP_STEPPING_DSTATE, align 2
  %14 = zext i16 %13 to i32
  %15 = icmp ne i32 %14, 0
  br i1 %15, label %16, label %32

16:                                               ; preds = %12
  %17 = call zeroext i1 @qemu_loglevel_mask(i32 noundef 32768)
  br i1 %17, label %18, label %32

18:                                               ; preds = %16
  %19 = load i8, ptr @message_with_timestamp, align 1, !range !7, !noundef !8
  %20 = trunc i8 %19 to i1
  br i1 %20, label %21, label %29

21:                                               ; preds = %18
  call void @llvm.lifetime.start.p0(i64 16, ptr %3) #14
  call void @llvm.memset.p0.i64(ptr align 8 %3, i8 0, i64 16, i1 false), !annotation !4
  %22 = call i32 @gettimeofday(ptr noundef %3, ptr noundef null) #14
  %23 = call i32 @qemu_get_thread_id()
  %24 = getelementptr inbounds nuw %struct.timeval, ptr %3, i32 0, i32 0
  %25 = load i64, ptr %24, align 8
  %26 = getelementptr inbounds nuw %struct.timeval, ptr %3, i32 0, i32 1
  %27 = load i64, ptr %26, align 8
  %28 = load i32, ptr %2, align 4
  call void (ptr, ...) @qemu_log(ptr noundef @.str.56, i32 noundef %23, i64 noundef %25, i64 noundef %27, i32 noundef %28)
  call void @llvm.lifetime.end.p0(i64 16, ptr %3) #14
  br label %31

29:                                               ; preds = %18
  %30 = load i32, ptr %2, align 4
  call void (ptr, ...) @qemu_log(ptr noundef @.str.57, i32 noundef %30)
  br label %31

31:                                               ; preds = %29, %21
  br label %32

32:                                               ; preds = %31, %16, %12, %1
  ret void
}

; Function Attrs: inlinehint nounwind sspstrong uwtable
define internal void @trace_gdbstub_op_continue_cpu(i32 noundef %0) #3 {
  %2 = alloca i32, align 4
  store i32 %0, ptr %2, align 4
  %3 = load i32, ptr %2, align 4
  call void @_nocheck__trace_gdbstub_op_continue_cpu(i32 noundef %3)
  ret void
}

; Function Attrs: inlinehint nounwind sspstrong uwtable
define internal void @trace_gdbstub_op_stepping(i32 noundef %0) #3 {
  %2 = alloca i32, align 4
  store i32 %0, ptr %2, align 4
  %3 = load i32, ptr %2, align 4
  call void @_nocheck__trace_gdbstub_op_stepping(i32 noundef %3)
  ret void
}

; Function Attrs: nounwind sspstrong uwtable
define dso_local i32 @gdb_continue_partial(ptr noundef %0) #0 {
  %2 = alloca i32, align 4
  %3 = alloca ptr, align 8
  %4 = alloca ptr, align 8
  %5 = alloca i32, align 4
  %6 = alloca i32, align 4
  %7 = alloca i8, align 1
  %8 = alloca ptr, align 8
  %9 = alloca ptr, align 8
  %10 = alloca ptr, align 8
  %11 = alloca ptr, align 8
  %12 = alloca i32, align 4
  %13 = alloca ptr, align 8
  %14 = alloca ptr, align 8
  %15 = alloca ptr, align 8
  %16 = alloca ptr, align 8
  store ptr %0, ptr %3, align 8
  call void @llvm.lifetime.start.p0(i64 8, ptr %4) #14
  store ptr null, ptr %4, align 8, !annotation !4
  call void @llvm.lifetime.start.p0(i64 4, ptr %5) #14
  store i32 0, ptr %5, align 4
  call void @llvm.lifetime.start.p0(i64 4, ptr %6) #14
  store i32 0, ptr %6, align 4
  %17 = call zeroext i1 @runstate_needs_reset()
  br i1 %17, label %102, label %18

18:                                               ; preds = %1
  call void @llvm.lifetime.start.p0(i64 1, ptr %7) #14
  store i8 0, ptr %7, align 1
  br label %19

19:                                               ; preds = %18
  br i1 false, label %20, label %21

20:                                               ; preds = %19
  call void @qemu_build_not_reached_always() #15, !srcloc !12
  unreachable

21:                                               ; preds = %19
  call void @llvm.lifetime.start.p0(i64 8, ptr %8) #14
  store ptr null, ptr %8, align 8, !annotation !4
  %22 = load atomic i64, ptr @cpus_queue monotonic, align 8
  store i64 %22, ptr %8, align 8
  call void asm sideeffect "", "~{memory},~{dirflag},~{fpsr},~{flags}"() #14, !srcloc !13
  %23 = load ptr, ptr %8, align 8
  store ptr %23, ptr %9, align 8
  call void @llvm.lifetime.end.p0(i64 8, ptr %8) #14
  %24 = load ptr, ptr %9, align 8
  store ptr %24, ptr %4, align 8
  br label %25

25:                                               ; preds = %43, %21
  %26 = load ptr, ptr %4, align 8
  %27 = icmp ne ptr %26, null
  br i1 %27, label %28, label %49

28:                                               ; preds = %25
  %29 = load ptr, ptr %3, align 8
  %30 = load ptr, ptr %4, align 8
  %31 = getelementptr inbounds nuw %struct.CPUState, ptr %30, i32 0, i32 51
  %32 = load i32, ptr %31, align 16
  %33 = sext i32 %32 to i64
  %34 = getelementptr inbounds i8, ptr %29, i64 %33
  %35 = load i8, ptr %34, align 1
  %36 = sext i8 %35 to i32
  %37 = icmp eq i32 %36, 115
  br i1 %37, label %38, label %39

38:                                               ; preds = %28
  store i8 1, ptr %7, align 1
  br label %49

39:                                               ; preds = %28
  br label %40

40:                                               ; preds = %39
  br label %41

41:                                               ; preds = %40
  br i1 false, label %42, label %43

42:                                               ; preds = %41
  call void @qemu_build_not_reached_always() #15, !srcloc !14
  unreachable

43:                                               ; preds = %41
  call void @llvm.lifetime.start.p0(i64 8, ptr %10) #14
  store ptr null, ptr %10, align 8, !annotation !4
  %44 = load ptr, ptr %4, align 8
  %45 = getelementptr inbounds nuw %struct.CPUState, ptr %44, i32 0, i32 35
  %46 = load atomic i64, ptr %45 monotonic, align 16
  store i64 %46, ptr %10, align 8
  call void asm sideeffect "", "~{memory},~{dirflag},~{fpsr},~{flags}"() #14, !srcloc !15
  %47 = load ptr, ptr %10, align 8
  store ptr %47, ptr %11, align 8
  call void @llvm.lifetime.end.p0(i64 8, ptr %10) #14
  %48 = load ptr, ptr %11, align 8
  store ptr %48, ptr %4, align 8
  br label %25, !llvm.loop !16

49:                                               ; preds = %38, %25
  %50 = load i8, ptr %7, align 1, !range !7, !noundef !8
  %51 = trunc i8 %50 to i1
  %52 = call i32 @vm_prepare_start(i1 noundef zeroext %51)
  %53 = icmp ne i32 %52, 0
  br i1 %53, label %54, label %55

54:                                               ; preds = %49
  store i32 0, ptr %2, align 4
  store i32 1, ptr %12, align 4
  br label %99

55:                                               ; preds = %49
  br label %56

56:                                               ; preds = %55
  br i1 false, label %57, label %58

57:                                               ; preds = %56
  call void @qemu_build_not_reached_always() #15, !srcloc !17
  unreachable

58:                                               ; preds = %56
  call void @llvm.lifetime.start.p0(i64 8, ptr %13) #14
  store ptr null, ptr %13, align 8, !annotation !4
  %59 = load atomic i64, ptr @cpus_queue monotonic, align 8
  store i64 %59, ptr %13, align 8
  call void asm sideeffect "", "~{memory},~{dirflag},~{fpsr},~{flags}"() #14, !srcloc !18
  %60 = load ptr, ptr %13, align 8
  store ptr %60, ptr %14, align 8
  call void @llvm.lifetime.end.p0(i64 8, ptr %13) #14
  %61 = load ptr, ptr %14, align 8
  store ptr %61, ptr %4, align 8
  br label %62

62:                                               ; preds = %92, %58
  %63 = load ptr, ptr %4, align 8
  %64 = icmp ne ptr %63, null
  br i1 %64, label %65, label %98

65:                                               ; preds = %62
  %66 = load ptr, ptr %3, align 8
  %67 = load ptr, ptr %4, align 8
  %68 = getelementptr inbounds nuw %struct.CPUState, ptr %67, i32 0, i32 51
  %69 = load i32, ptr %68, align 16
  %70 = sext i32 %69 to i64
  %71 = getelementptr inbounds i8, ptr %66, i64 %70
  %72 = load i8, ptr %71, align 1
  %73 = sext i8 %72 to i32
  switch i32 %73, label %87 [
    i32 0, label %74
    i32 1, label %74
    i32 115, label %75
    i32 99, label %82
  ]

74:                                               ; preds = %65, %65
  br label %88

75:                                               ; preds = %65
  %76 = load ptr, ptr %4, align 8
  %77 = getelementptr inbounds nuw %struct.CPUState, ptr %76, i32 0, i32 51
  %78 = load i32, ptr %77, align 16
  call void @trace_gdbstub_op_stepping(i32 noundef %78)
  %79 = load ptr, ptr %4, align 8
  %80 = load i32, ptr getelementptr inbounds nuw (%struct.GDBState, ptr @gdbserver_state, i32 0, i32 16), align 8
  call void @cpu_single_step(ptr noundef %79, i32 noundef %80)
  %81 = load ptr, ptr %4, align 8
  call void @cpu_resume(ptr noundef %81)
  store i32 1, ptr %6, align 4
  br label %88

82:                                               ; preds = %65
  %83 = load ptr, ptr %4, align 8
  %84 = getelementptr inbounds nuw %struct.CPUState, ptr %83, i32 0, i32 51
  %85 = load i32, ptr %84, align 16
  call void @trace_gdbstub_op_continue_cpu(i32 noundef %85)
  %86 = load ptr, ptr %4, align 8
  call void @cpu_resume(ptr noundef %86)
  store i32 1, ptr %6, align 4
  br label %88

87:                                               ; preds = %65
  store i32 -1, ptr %5, align 4
  br label %88

88:                                               ; preds = %87, %82, %75, %74
  br label %89

89:                                               ; preds = %88
  br label %90

90:                                               ; preds = %89
  br i1 false, label %91, label %92

91:                                               ; preds = %90
  call void @qemu_build_not_reached_always() #15, !srcloc !19
  unreachable

92:                                               ; preds = %90
  call void @llvm.lifetime.start.p0(i64 8, ptr %15) #14
  store ptr null, ptr %15, align 8, !annotation !4
  %93 = load ptr, ptr %4, align 8
  %94 = getelementptr inbounds nuw %struct.CPUState, ptr %93, i32 0, i32 35
  %95 = load atomic i64, ptr %94 monotonic, align 16
  store i64 %95, ptr %15, align 8
  call void asm sideeffect "", "~{memory},~{dirflag},~{fpsr},~{flags}"() #14, !srcloc !20
  %96 = load ptr, ptr %15, align 8
  store ptr %96, ptr %16, align 8
  call void @llvm.lifetime.end.p0(i64 8, ptr %15) #14
  %97 = load ptr, ptr %16, align 8
  store ptr %97, ptr %4, align 8
  br label %62, !llvm.loop !21

98:                                               ; preds = %62
  store i32 0, ptr %12, align 4
  br label %99

99:                                               ; preds = %98, %54
  call void @llvm.lifetime.end.p0(i64 1, ptr %7) #14
  %100 = load i32, ptr %12, align 4
  switch i32 %100, label %108 [
    i32 0, label %101
  ]

101:                                              ; preds = %99
  br label %102

102:                                              ; preds = %101, %1
  %103 = load i32, ptr %6, align 4
  %104 = icmp ne i32 %103, 0
  br i1 %104, label %105, label %106

105:                                              ; preds = %102
  call void @qemu_clock_enable(i32 noundef 1, i1 noundef zeroext true)
  br label %106

106:                                              ; preds = %105, %102
  %107 = load i32, ptr %5, align 4
  store i32 %107, ptr %2, align 4
  store i32 1, ptr %12, align 4
  br label %108

108:                                              ; preds = %106, %99
  call void @llvm.lifetime.end.p0(i64 4, ptr %6) #14
  call void @llvm.lifetime.end.p0(i64 4, ptr %5) #14
  call void @llvm.lifetime.end.p0(i64 8, ptr %4) #14
  %109 = load i32, ptr %2, align 4
  ret i32 %109
}