; Function Attrs: nounwind sspstrong uwtable
define dso_local range(i32 -1, 1) i32 @gdb_continue_partial(ptr noundef readonly captures(none) %0) local_unnamed_addr #2 {
  %2 = alloca %struct.timeval, align 8
  %3 = alloca %struct.timeval, align 8
  %4 = tail call zeroext i1 @runstate_needs_reset() #16
  br i1 %4, label %.thread43, label %5

5:                                                ; preds = %1
  %6 = load atomic i64, ptr @cpus_queue monotonic, align 8
  tail call void asm sideeffect "", "~{memory},~{dirflag},~{fpsr},~{flags}"() #16, !srcloc !12
  %.not48.not = icmp eq i64 %6, 0
  br i1 %.not48.not, label %._crit_edge, label %.lr.ph

.lr.ph:                                           ; preds = %5, %13
  %.02549.in = phi i64 [ %15, %13 ], [ %6, %5 ]
  %.02549 = inttoptr i64 %.02549.in to ptr
  %7 = getelementptr inbounds nuw i8, ptr %.02549, i64 704
  %8 = load i32, ptr %7, align 16
  %9 = sext i32 %8 to i64
  %10 = getelementptr inbounds i8, ptr %0, i64 %9
  %11 = load i8, ptr %10, align 1
  %12 = icmp eq i8 %11, 115
  br i1 %12, label %._crit_edge, label %13

13:                                               ; preds = %.lr.ph
  %14 = getelementptr inbounds nuw i8, ptr %.02549, i64 560
  %15 = load atomic i64, ptr %14 monotonic, align 16
  tail call void asm sideeffect "", "~{memory},~{dirflag},~{fpsr},~{flags}"() #16, !srcloc !13
  %.not.not = icmp eq i64 %15, 0
  br i1 %.not.not, label %._crit_edge, label %.lr.ph, !llvm.loop !14

._crit_edge:                                      ; preds = %13, %.lr.ph, %5
  %.not.lcssa = phi i1 [ false, %5 ], [ %12, %.lr.ph ], [ %12, %13 ]
  %16 = tail call i32 @vm_prepare_start(i1 noundef zeroext %.not.lcssa) #16
  %.not35 = icmp eq i32 %16, 0
  br i1 %.not35, label %17, label %.thread43

17:                                               ; preds = %._crit_edge
  %18 = load atomic i64, ptr @cpus_queue monotonic, align 8
  tail call void asm sideeffect "", "~{memory},~{dirflag},~{fpsr},~{flags}"() #16, !srcloc !15
  %.not3654 = icmp eq i64 %18, 0
  br i1 %.not3654, label %.thread43, label %.lr.ph59

.lr.ph59:                                         ; preds = %17
  %19 = getelementptr inbounds nuw i8, ptr %2, i64 8
  %20 = getelementptr inbounds nuw i8, ptr %3, i64 8
  br label %21

21:                                               ; preds = %.lr.ph59, %61
  %.12657.in = phi i64 [ %18, %.lr.ph59 ], [ %63, %61 ]
  %.256 = phi i32 [ 0, %.lr.ph59 ], [ %.3, %61 ]
  %.23155 = phi i32 [ 0, %.lr.ph59 ], [ %.332, %61 ]
  %.12657 = inttoptr i64 %.12657.in to ptr
  %22 = getelementptr inbounds nuw i8, ptr %.12657, i64 704
  %23 = load i32, ptr %22, align 16
  %24 = sext i32 %23 to i64
  %25 = getelementptr inbounds i8, ptr %0, i64 %24
  %26 = load i8, ptr %25, align 1
  switch i8 %26, label %60 [
    i8 0, label %61
    i8 1, label %61
    i8 115, label %27
    i8 99, label %44
  ]

27:                                               ; preds = %21
  %28 = load i32, ptr @trace_events_enabled_count, align 4
  %.not.i.i = icmp eq i32 %28, 0
  br i1 %.not.i.i, label %trace_gdbstub_op_stepping.exit, label %29, !prof !5

29:                                               ; preds = %27
  %30 = load i16, ptr @_TRACE_GDBSTUB_OP_STEPPING_DSTATE, align 2
  %.not2.i.i = icmp eq i16 %30, 0
  br i1 %.not2.i.i, label %trace_gdbstub_op_stepping.exit, label %31

31:                                               ; preds = %29
  %32 = load i32, ptr @qemu_loglevel, align 4
  %33 = and i32 %32, 32768
  %.not3.i.i = icmp eq i32 %33, 0
  br i1 %.not3.i.i, label %trace_gdbstub_op_stepping.exit, label %34

34:                                               ; preds = %31
  %35 = load i8, ptr @message_with_timestamp, align 1, !range !6, !noundef !7
  %36 = trunc nuw i8 %35 to i1
  br i1 %36, label %37, label %42

37:                                               ; preds = %34
  call void @llvm.lifetime.start.p0(i64 16, ptr nonnull %3) #16
  call void @llvm.memset.p0.i64(ptr noundef nonnull align 8 dereferenceable(16) %3, i8 0, i64 16, i1 false), !annotation !8
  %38 = call i32 @gettimeofday(ptr noundef nonnull %3, ptr noundef null) #16
  %39 = tail call i32 @qemu_get_thread_id() #16
  %40 = load i64, ptr %3, align 8
  %41 = load i64, ptr %20, align 8
  tail call void (ptr, ...) @qemu_log(ptr noundef nonnull @.str.56, i32 noundef %39, i64 noundef %40, i64 noundef %41, i32 noundef %23) #16
  call void @llvm.lifetime.end.p0(i64 16, ptr nonnull %3) #16
  br label %trace_gdbstub_op_stepping.exit

42:                                               ; preds = %34
  tail call void (ptr, ...) @qemu_log(ptr noundef nonnull @.str.57, i32 noundef %23) #16
  br label %trace_gdbstub_op_stepping.exit

trace_gdbstub_op_stepping.exit:                   ; preds = %27, %29, %31, %37, %42
  %43 = load i32, ptr getelementptr inbounds nuw (i8, ptr @gdbserver_state, i64 4192), align 8
  tail call void @cpu_single_step(ptr noundef nonnull %.12657, i32 noundef %43) #16
  tail call void @cpu_resume(ptr noundef nonnull %.12657) #16
  br label %61

44:                                               ; preds = %21
  %45 = load i32, ptr @trace_events_enabled_count, align 4
  %.not.i.i38 = icmp eq i32 %45, 0
  br i1 %.not.i.i38, label %trace_gdbstub_op_continue_cpu.exit, label %46, !prof !5

46:                                               ; preds = %44
  %47 = load i16, ptr @_TRACE_GDBSTUB_OP_CONTINUE_CPU_DSTATE, align 2
  %.not2.i.i39 = icmp eq i16 %47, 0
  br i1 %.not2.i.i39, label %trace_gdbstub_op_continue_cpu.exit, label %48

48:                                               ; preds = %46
  %49 = load i32, ptr @qemu_loglevel, align 4
  %50 = and i32 %49, 32768
  %.not3.i.i40 = icmp eq i32 %50, 0
  br i1 %.not3.i.i40, label %trace_gdbstub_op_continue_cpu.exit, label %51

51:                                               ; preds = %48
  %52 = load i8, ptr @message_with_timestamp, align 1, !range !6, !noundef !7
  %53 = trunc nuw i8 %52 to i1
  br i1 %53, label %54, label %59

54:                                               ; preds = %51
  call void @llvm.lifetime.start.p0(i64 16, ptr nonnull %2) #16
  call void @llvm.memset.p0.i64(ptr noundef nonnull align 8 dereferenceable(16) %2, i8 0, i64 16, i1 false), !annotation !8
  %55 = call i32 @gettimeofday(ptr noundef nonnull %2, ptr noundef null) #16
  %56 = tail call i32 @qemu_get_thread_id() #16
  %57 = load i64, ptr %2, align 8
  %58 = load i64, ptr %19, align 8
  tail call void (ptr, ...) @qemu_log(ptr noundef nonnull @.str.58, i32 noundef %56, i64 noundef %57, i64 noundef %58, i32 noundef %23) #16
  call void @llvm.lifetime.end.p0(i64 16, ptr nonnull %2) #16
  br label %trace_gdbstub_op_continue_cpu.exit

59:                                               ; preds = %51
  tail call void (ptr, ...) @qemu_log(ptr noundef nonnull @.str.59, i32 noundef %23) #16
  br label %trace_gdbstub_op_continue_cpu.exit

trace_gdbstub_op_continue_cpu.exit:               ; preds = %44, %46, %48, %54, %59
  tail call void @cpu_resume(ptr noundef nonnull %.12657) #16
  br label %61

60:                                               ; preds = %21
  br label %61

61:                                               ; preds = %trace_gdbstub_op_stepping.exit, %trace_gdbstub_op_continue_cpu.exit, %60, %21, %21
  %.332 = phi i32 [ %.23155, %60 ], [ 1, %trace_gdbstub_op_continue_cpu.exit ], [ 1, %trace_gdbstub_op_stepping.exit ], [ %.23155, %21 ], [ %.23155, %21 ]
  %.3 = phi i32 [ -1, %60 ], [ %.256, %trace_gdbstub_op_continue_cpu.exit ], [ %.256, %trace_gdbstub_op_stepping.exit ], [ %.256, %21 ], [ %.256, %21 ]
  %62 = getelementptr inbounds nuw i8, ptr %.12657, i64 560
  %63 = load atomic i64, ptr %62 monotonic, align 16
  tail call void asm sideeffect "", "~{memory},~{dirflag},~{fpsr},~{flags}"() #16, !srcloc !16
  %.not36 = icmp eq i64 %63, 0
  br i1 %.not36, label %._crit_edge60, label %21, !llvm.loop !17

._crit_edge60:                                    ; preds = %61
  %64 = icmp eq i32 %.332, 0
  br i1 %64, label %.thread43, label %65

65:                                               ; preds = %._crit_edge60
  tail call void @qemu_clock_enable(i32 noundef 1, i1 noundef zeroext true) #16
  br label %.thread43

.thread43:                                        ; preds = %17, %._crit_edge, %1, %._crit_edge60, %65
  %.1 = phi i32 [ %.3, %65 ], [ %.3, %._crit_edge60 ], [ 0, %1 ], [ 0, %._crit_edge ], [ 0, %17 ]
  ret i32 %.1
}